; Function Attrs: null_pointer_is_valid sspstrong uwtable
define internal i32 @dissect_h225_T_guid(ptr noundef %0, i32 noundef %1, ptr noundef initializes((40, 48)) %2, ptr noundef %3, i32 noundef %4) #0 {
  %6 = alloca ptr, align 8
  call void @llvm.lifetime.start.p0(i64 8, ptr nonnull %6) #11
  store ptr null, ptr %6, align 8
  %7 = getelementptr inbounds nuw i8, ptr %2, i64 40
  store ptr %6, ptr %7, align 8
  %8 = call i32 @dissect_per_octet_string(ptr noundef %0, i32 noundef %1, ptr noundef %2, ptr noundef %3, i32 noundef %4, i32 noundef 16, i32 noundef 16, i1 noundef zeroext false, ptr noundef nonnull %6)
  %9 = load ptr, ptr %6, align 8
  %.not = icmp eq ptr %9, null
  br i1 %.not, label %16, label %10

10:                                               ; preds = %5
  %11 = getelementptr inbounds nuw i8, ptr %2, i64 16
  %12 = load ptr, ptr %11, align 8
  %13 = getelementptr inbounds nuw i8, ptr %12, i64 408
  %14 = load ptr, ptr %13, align 8
  %15 = call noalias dereferenceable_or_null(16) ptr @wmem_alloc(ptr noundef %14, i64 noundef 16) #12
  store ptr %15, ptr @call_id_guid, align 8
  call void @tvb_get_ntohguid(ptr noundef nonnull %9, i32 noundef 0, ptr noundef %15)
  br label %16

16:                                               ; preds = %10, %5
  store ptr null, ptr %7, align 8
  call void @llvm.lifetime.end.p0(i64 8, ptr nonnull %6) #11
  ret i32 %8
}